; Function Attrs: mustprogress uwtable
define internal noundef i32 @_ZL19buffer_writeintegerIiEiP9lua_State(ptr noundef %0) #0 {
  %2 = alloca i64, align 8
  store i64 0, ptr %2, align 8
  %3 = call noundef ptr @_Z16luaL_checkbufferP9lua_StateiPm(ptr noundef %0, i32 noundef 1, ptr noundef nonnull %2)
  %4 = call noundef i32 @_Z17luaL_checkintegerP9lua_Statei(ptr noundef %0, i32 noundef 2)
  %5 = call noundef i32 @_Z18luaL_checkunsignedP9lua_Statei(ptr noundef %0, i32 noundef 3)
  %6 = zext i32 %4 to i64
  %7 = add nuw nsw i64 %6, 4
  %8 = load i64, ptr %2, align 8
  %9 = icmp ugt i64 %7, %8
  br i1 %9, label %10, label %11

10:                                               ; preds = %1
  call void (ptr, ptr, ...) @_Z11luaL_errorLP9lua_StatePKcz(ptr noundef %0, ptr noundef nonnull @.str.26) #5
  unreachable

11:                                               ; preds = %1
  %12 = sext i32 %4 to i64
  %13 = getelementptr inbounds i8, ptr %3, i64 %12
  store i32 %5, ptr %13, align 1
  ret i32 0
}